Certificate:
    Data:
        Version: 3 (0x2)
        Serial Number:
            e1:bd:85:53:13:68:65:3c
    Signature Algorithm: ecdsa-with-SHA1
        Issuer: WeaveCAId=18B430EEEE000001
        Validity
            Not Before: May 24 05:24:04 2013 GMT
            Not After : May 12 05:24:04 2063 GMT
        Subject: WeaveCAId=18B430EEEE000002
        Subject Public Key Info:
            Public Key Algorithm: id-ecPublicKey
                Public-Key: (192 bit)
                pub: 
                    04:3b:9d:c4:e8:ca:c8:33:a0:2e:7b:5d:b5:29:f4:
                    a6:d5:f8:82:26:4c:d2:fb:31:21:e6:84:a5:1c:c9:
                    58:13:72:36:4a:05:a9:c6:27:65:dd:20:db:30:d4:
                    6b:f8:ad:31
                ASN1 OID: prime192v1
        X509v3 extensions:
            X509v3 Basic Constraints: critical
                CA:TRUE, pathlen:0
            X509v3 Key Usage: critical
                Certificate Sign, CRL Sign
            X509v3 Subject Key Identifier: 
                44:E3:40:38:A9:D4:B5:A7
            X509v3 Authority Key Identifier: 
                keyid:42:0C:AC:F6:B4:64:71:E6

    Signature Algorithm: ecdsa-with-SHA1
         30:36:02:19:00:d5:56:e1:3b:dc:31:13:ba:89:ad:f6:f9:f7:
         0a:c7:81:c3:28:31:e1:e9:47:59:92:02:19:00:d2:64:76:7a:
         91:1d:4e:ee:a1:7f:84:46:ad:cc:36:de:7a:3b:12:a1:ca:ab:
         d7:b2
-----BEGIN CERTIFICATE-----
MIIBajCCASCgAwIBAgIJAOG9hVMTaGU8MAkGByqGSM49BAEwIjEgMB4GCisGAQQB
gsMrAQMMEDE4QjQzMEVFRUUwMDAwMDEwIBcNMTMwNTI0MDUyNDA0WhgPMjA2MzA1
MTIwNTI0MDRaMCIxIDAeBgorBgEEAYLDKwEDDBAxOEI0MzBFRUVFMDAwMDAyMEkw
EwYHKoZIzj0CAQYIKoZIzj0DAQEDMgAEO53E6MrIM6Aue121KfSm1fiCJkzS+zEh
5oSlHMlYE3I2SgWpxidl3SDbMNRr+K0xo04wTDASBgNVHRMBAf8ECDAGAQH/AgEA
MA4GA1UdDwEB/wQEAwIBBjARBgNVHQ4ECgQIRONAOKnUtacwEwYDVR0jBAwwCoAI
Qgys9rRkceYwCQYHKoZIzj0EAQM5ADA2AhkA1VbhO9wxE7qJrfb59wrHgcMoMeHp
R1mSAhkA0mR2epEdTu6hf4RGrcw23no7EqHKq9ey
-----END CERTIFICATE-----
